target datalayout = "e-m:e-p270:32:32-p271:32:32-p272:64:64-i64:64-i128:128-f80:128-n8:16:32:64-S128"
target triple = "x86_64-unknown-linux-gnu"

%struct.BinaryProperty = type { i32, i32, ptr }
%struct.IntProperty = type { i32, i32, i32, ptr, ptr }

; Function Attrs: mustprogress nounwind uwtable
define i32 @uprops_getSource_75(i32 noundef %which) #2 {
entry:
  %retval = alloca i32, align 4
  %which.addr = alloca i32, align 4
  %prop = alloca ptr, align 8
  %prop12 = alloca ptr, align 8
  store i32 %which, ptr %which.addr, align 4
  %0 = load i32, ptr %which.addr, align 4
  %cmp = icmp slt i32 %0, 0
  br i1 %cmp, label %if.then, label %if.else

if.then:                                          ; preds = %entry
  store i32 0, ptr %retval, align 4
  br label %return

if.else:                                          ; preds = %entry
  %1 = load i32, ptr %which.addr, align 4
  %cmp1 = icmp slt i32 %1, 75
  br i1 %cmp1, label %if.then2, label %if.else6

if.then2:                                         ; preds = %if.else
  %2 = load i32, ptr %which.addr, align 4
  %idxprom = sext i32 %2 to i64
  %arrayidx = getelementptr inbounds [75 x %struct.BinaryProperty], ptr @_ZL8binProps, i64 0, i64 %idxprom
  store ptr %arrayidx, ptr %prop, align 8
  %3 = load ptr, ptr %prop, align 8
  %mask = getelementptr inbounds %struct.BinaryProperty, ptr %3, i32 0, i32 1
  %4 = load i32, ptr %mask, align 4
  %cmp3 = icmp ne i32 %4, 0
  br i1 %cmp3, label %if.then4, label %if.else5

if.then4:                                         ; preds = %if.then2
  store i32 2, ptr %retval, align 4
  br label %return

if.else5:                                         ; preds = %if.then2
  %5 = load ptr, ptr %prop, align 8
  %column = getelementptr inbounds %struct.BinaryProperty, ptr %5, i32 0, i32 0
  %6 = load i32, ptr %column, align 8
  store i32 %6, ptr %retval, align 4
  br label %return

if.else6:                                         ; preds = %if.else
  %7 = load i32, ptr %which.addr, align 4
  %cmp7 = icmp slt i32 %7, 4096
  br i1 %cmp7, label %if.then8, label %if.else9

if.then8:                                         ; preds = %if.else6
  store i32 0, ptr %retval, align 4
  br label %return

if.else9:                                         ; preds = %if.else6
  %8 = load i32, ptr %which.addr, align 4
  %cmp10 = icmp slt i32 %8, 4121
  br i1 %cmp10, label %if.then11, label %if.else20

if.then11:                                        ; preds = %if.else9
  %9 = load i32, ptr %which.addr, align 4
  %sub = sub nsw i32 %9, 4096
  %idxprom13 = sext i32 %sub to i64
  %arrayidx14 = getelementptr inbounds [25 x %struct.IntProperty], ptr @_ZL8intProps, i64 0, i64 %idxprom13
  store ptr %arrayidx14, ptr %prop12, align 8
  %10 = load ptr, ptr %prop12, align 8
  %mask15 = getelementptr inbounds %struct.IntProperty, ptr %10, i32 0, i32 1
  %11 = load i32, ptr %mask15, align 4
  %cmp16 = icmp ne i32 %11, 0
  br i1 %cmp16, label %if.then17, label %if.else18

if.then17:                                        ; preds = %if.then11
  store i32 2, ptr %retval, align 4
  br label %return

if.else18:                                        ; preds = %if.then11
  %12 = load ptr, ptr %prop12, align 8
  %column19 = getelementptr inbounds %struct.IntProperty, ptr %12, i32 0, i32 0
  %13 = load i32, ptr %column19, align 8
  store i32 %13, ptr %retval, align 4
  br label %return

if.else20:                                        ; preds = %if.else9
  %14 = load i32, ptr %which.addr, align 4
  %cmp21 = icmp slt i32 %14, 16384
  br i1 %cmp21, label %if.then22, label %if.else23

if.then22:                                        ; preds = %if.else20
  %15 = load i32, ptr %which.addr, align 4
  switch i32 %15, label %sw.default [
    i32 8192, label %sw.bb
    i32 12288, label %sw.bb
  ]

sw.bb:                                            ; preds = %if.then22, %if.then22
  store i32 1, ptr %retval, align 4
  br label %return

sw.default:                                       ; preds = %if.then22
  store i32 0, ptr %retval, align 4
  br label %return

if.else23:                                        ; preds = %if.else20
  %16 = load i32, ptr %which.addr, align 4
  %cmp24 = icmp slt i32 %16, 16398
  br i1 %cmp24, label %if.then25, label %if.else31

if.then25:                                        ; preds = %if.else23
  %17 = load i32, ptr %which.addr, align 4
  switch i32 %17, label %sw.default30 [
    i32 16384, label %sw.bb26
    i32 16385, label %sw.bb27
    i32 16386, label %sw.bb28
    i32 16388, label %sw.bb28
    i32 16390, label %sw.bb28
    i32 16391, label %sw.bb28
    i32 16392, label %sw.bb28
    i32 16393, label %sw.bb28
    i32 16394, label %sw.bb28
    i32 16396, label %sw.bb28
    i32 16387, label %sw.bb29
    i32 16389, label %sw.bb29
    i32 16395, label %sw.bb29
  ]

sw.bb26:                                          ; preds = %if.then25
  store i32 2, ptr %retval, align 4
  br label %return

sw.bb27:                                          ; preds = %if.then25
  store i32 5, ptr %retval, align 4
  br label %return

sw.bb28:                                          ; preds = %if.then25, %if.then25, %if.then25, %if.then25, %if.then25, %if.then25, %if.then25, %if.then25
  store i32 4, ptr %retval, align 4
  br label %return

sw.bb29:                                          ; preds = %if.then25, %if.then25, %if.then25
  store i32 3, ptr %retval, align 4
  br label %return

sw.default30:                                     ; preds = %if.then25
  store i32 0, ptr %retval, align 4
  br label %return

if.else31:                                        ; preds = %if.else23
  %18 = load i32, ptr %which.addr, align 4
  switch i32 %18, label %sw.default33 [
    i32 28672, label %sw.bb32
  ]

sw.bb32:                                          ; preds = %if.else31
  store i32 2, ptr %retval, align 4
  br label %return

sw.default33:                                     ; preds = %if.else31
  store i32 0, ptr %retval, align 4
  br label %return

return:                                           ; preds = %sw.default33, %sw.bb32, %sw.default30, %sw.bb29, %sw.bb28, %sw.bb27, %sw.bb26, %sw.default, %sw.bb, %if.else18, %if.then17, %if.then8, %if.else5, %if.then4, %if.then
  %19 = load i32, ptr %retval, align 4
  ret i32 %19
}