; Function Attrs: mustprogress nofree norecurse nosync nounwind willreturn memory(none) uwtable
define i32 @uprops_getSource_75(i32 noundef %which) local_unnamed_addr #2 {
entry:
  %cmp = icmp slt i32 %which, 0
  br i1 %cmp, label %return, label %if.else

if.else:                                          ; preds = %entry
  %cmp1 = icmp ult i32 %which, 75
  br i1 %cmp1, label %if.then2, label %if.else6

if.then2:                                         ; preds = %if.else
  %idxprom = zext nneg i32 %which to i64
  %arrayidx = getelementptr inbounds [75 x %struct.BinaryProperty], ptr @_ZL8binProps, i64 0, i64 %idxprom
  %mask = getelementptr inbounds i8, ptr %arrayidx, i64 4
  %0 = load i32, ptr %mask, align 4
  %cmp3.not = icmp eq i32 %0, 0
  br i1 %cmp3.not, label %if.else5, label %return

if.else5:                                         ; preds = %if.then2
  %1 = load i32, ptr %arrayidx, align 16
  br label %return

if.else6:                                         ; preds = %if.else
  %cmp7 = icmp ult i32 %which, 4096
  br i1 %cmp7, label %return, label %if.else9

if.else9:                                         ; preds = %if.else6
  %cmp10 = icmp ult i32 %which, 4121
  br i1 %cmp10, label %if.then11, label %if.else20

if.then11:                                        ; preds = %if.else9
  %sub = add nsw i32 %which, -4096
  %idxprom13 = zext nneg i32 %sub to i64
  %arrayidx14 = getelementptr inbounds [25 x %struct.IntProperty], ptr @_ZL8intProps, i64 0, i64 %idxprom13
  %mask15 = getelementptr inbounds i8, ptr %arrayidx14, i64 4
  %2 = load i32, ptr %mask15, align 4
  %cmp16.not = icmp eq i32 %2, 0
  br i1 %cmp16.not, label %if.else18, label %return

if.else18:                                        ; preds = %if.then11
  %3 = load i32, ptr %arrayidx14, align 16
  br label %return

if.else20:                                        ; preds = %if.else9
  %cmp21 = icmp ult i32 %which, 16384
  br i1 %cmp21, label %if.then22, label %if.else23

if.then22:                                        ; preds = %if.else20
  %4 = and i32 %which, 12287
  %switch.selectcmp = icmp eq i32 %4, 8192
  %5 = zext i1 %switch.selectcmp to i32
  br label %return

if.else23:                                        ; preds = %if.else20
  %cmp24 = icmp ult i32 %which, 16398
  br i1 %cmp24, label %if.then25, label %if.else31

if.then25:                                        ; preds = %if.else23
  %switch.tableidx = add nsw i32 %which, -16384
  %6 = icmp ult i32 %switch.tableidx, 13
  br i1 %6, label %switch.lookup, label %return

if.else31:                                        ; preds = %if.else23
  %cond = icmp eq i32 %which, 28672
  %. = select i1 %cond, i32 2, i32 0
  br label %return

switch.lookup:                                    ; preds = %if.then25
  %7 = zext nneg i32 %switch.tableidx to i64
  %switch.gep = getelementptr inbounds [13 x i32], ptr @switch.table.uprops_getSource_75, i64 0, i64 %7
  %switch.load = load i32, ptr %switch.gep, align 4
  br label %return

return:                                           ; preds = %if.then25, %switch.lookup, %if.else31, %if.then22, %if.then11, %if.else6, %if.then2, %entry, %if.else18, %if.else5
  %retval.0 = phi i32 [ %1, %if.else5 ], [ %3, %if.else18 ], [ 0, %entry ], [ 2, %if.then2 ], [ 0, %if.else6 ], [ 2, %if.then11 ], [ %5, %if.then22 ], [ %., %if.else31 ], [ %switch.load, %switch.lookup ], [ 0, %if.then25 ]
  ret i32 %retval.0
}